; ModuleID = '28/553.c'
source_filename = "28/553.c"
target datalayout = "e-m:e-p270:32:32-p271:32:32-p272:64:64-i64:64-f80:128-n8:16:32:64-S128"
target triple = "x86_64-pc-linux-gnu"

@.str = private unnamed_addr constant [3 x i8] c"%d\00", align 1
@.str.1 = private unnamed_addr constant [4 x i8] c",%d\00", align 1

; Function Attrs: noinline nounwind uwtable
define dso_local i32 @main() #0 {
  %1 = alloca i32, align 4
  %2 = alloca [10000 x i8], align 16
  %3 = alloca [100 x i8], align 16
  %4 = alloca [100 x i8], align 16
  %5 = alloca [100 x [100 x i8]], align 16
  %6 = alloca i32, align 4
  %7 = alloca i32, align 4
  %8 = alloca i32, align 4
  %9 = alloca i32, align 4
  %10 = alloca i32, align 4
  %11 = alloca i32, align 4
  %12 = alloca i32, align 4
  %13 = alloca i32, align 4
  %14 = alloca i32, align 4
  %15 = alloca [50 x i32], align 16
  %16 = alloca i32, align 4
  %17 = alloca i32, align 4
  %18 = alloca i32, align 4
  store i32 0, i32* %1, align 4
  store i32 0, i32* %18, align 4
  %19 = getelementptr inbounds [10000 x i8], [10000 x i8]* %2, i64 0, i64 0
  %20 = call i32 (i8*, ...) bitcast (i32 (...)* @gets to i32 (i8*, ...)*)(i8* %19)
  store i32 0, i32* %11, align 4
  store i32 0, i32* %8, align 4
  br label %21

21:                                               ; preds = %57, %0
  %22 = load i32, i32* %11, align 4
  %23 = sext i32 %22 to i64
  %24 = getelementptr inbounds [10000 x i8], [10000 x i8]* %2, i64 0, i64 %23
  %25 = load i8, i8* %24, align 1
  %26 = sext i8 %25 to i32
  %27 = icmp ne i32 %26, 32
  br i1 %27, label %28, label %48

28:                                               ; preds = %21
  %29 = load i32, i32* %11, align 4
  %30 = sext i32 %29 to i64
  %31 = getelementptr inbounds [10000 x i8], [10000 x i8]* %2, i64 0, i64 %30
  %32 = load i8, i8* %31, align 1
  %33 = sext i8 %32 to i32
  %34 = icmp ne i32 %33, 0
  br i1 %34, label %35, label %48

35:                                               ; preds = %28
  %36 = load i32, i32* %11, align 4
  %37 = sext i32 %36 to i64
  %38 = getelementptr inbounds [10000 x i8], [10000 x i8]* %2, i64 0, i64 %37
  %39 = load i8, i8* %38, align 1
  %40 = getelementptr inbounds [100 x [100 x i8]], [100 x [100 x i8]]* %5, i64 0, i64 0
  %41 = load i32, i32* %8, align 4
  %42 = sext i32 %41 to i64
  %43 = getelementptr inbounds [100 x i8], [100 x i8]* %40, i64 0, i64 %42
  store i8 %39, i8* %43, align 1
  %44 = load i32, i32* %11, align 4
  %45 = add nsw i32 %44, 1
  store i32 %45, i32* %11, align 4
  %46 = load i32, i32* %8, align 4
  %47 = add nsw i32 %46, 1
  store i32 %47, i32* %8, align 4
  br label %57

48:                                               ; preds = %28, %21
  %49 = getelementptr inbounds [100 x [100 x i8]], [100 x [100 x i8]]* %5, i64 0, i64 0
  %50 = load i32, i32* %8, align 4
  %51 = sext i32 %50 to i64
  %52 = getelementptr inbounds [100 x i8], [100 x i8]* %49, i64 0, i64 %51
  store i8 0, i8* %52, align 1
  %53 = load i32, i32* %11, align 4
  %54 = add nsw i32 %53, 1
  store i32 %54, i32* %11, align 4
  %55 = load i32, i32* %8, align 4
  %56 = add nsw i32 %55, 1
  store i32 %56, i32* %8, align 4
  br label %58

57:                                               ; preds = %35
  br label %21

58:                                               ; preds = %48
  %59 = load i32, i32* %8, align 4
  %60 = sub nsw i32 %59, 1
  %61 = icmp ne i32 %60, 0
  br i1 %61, label %62, label %66

62:                                               ; preds = %58
  %63 = load i32, i32* %8, align 4
  %64 = sub nsw i32 %63, 1
  %65 = call i32 (i8*, ...) @printf(i8* getelementptr inbounds ([3 x i8], [3 x i8]* @.str, i64 0, i64 0), i32 %64)
  br label %66

66:                                               ; preds = %62, %58
  store i32 1, i32* %6, align 4
  br label %67

67:                                               ; preds = %127, %66
  store i32 0, i32* %8, align 4
  br label %68

68:                                               ; preds = %108, %67
  %69 = load i32, i32* %11, align 4
  %70 = sext i32 %69 to i64
  %71 = getelementptr inbounds [10000 x i8], [10000 x i8]* %2, i64 0, i64 %70
  %72 = load i8, i8* %71, align 1
  %73 = sext i8 %72 to i32
  %74 = icmp ne i32 %73, 32
  br i1 %74, label %75, label %97

75:                                               ; preds = %68
  %76 = load i32, i32* %11, align 4
  %77 = sext i32 %76 to i64
  %78 = getelementptr inbounds [10000 x i8], [10000 x i8]* %2, i64 0, i64 %77
  %79 = load i8, i8* %78, align 1
  %80 = sext i8 %79 to i32
  %81 = icmp ne i32 %80, 0
  br i1 %81, label %82, label %97

82:                                               ; preds = %75
  %83 = load i32, i32* %11, align 4
  %84 = sext i32 %83 to i64
  %85 = getelementptr inbounds [10000 x i8], [10000 x i8]* %2, i64 0, i64 %84
  %86 = load i8, i8* %85, align 1
  %87 = load i32, i32* %6, align 4
  %88 = sext i32 %87 to i64
  %89 = getelementptr inbounds [100 x [100 x i8]], [100 x [100 x i8]]* %5, i64 0, i64 %88
  %90 = load i32, i32* %8, align 4
  %91 = sext i32 %90 to i64
  %92 = getelementptr inbounds [100 x i8], [100 x i8]* %89, i64 0, i64 %91
  store i8 %86, i8* %92, align 1
  %93 = load i32, i32* %11, align 4
  %94 = add nsw i32 %93, 1
  store i32 %94, i32* %11, align 4
  %95 = load i32, i32* %8, align 4
  %96 = add nsw i32 %95, 1
  store i32 %96, i32* %8, align 4
  br label %108

97:                                               ; preds = %75, %68
  %98 = load i32, i32* %6, align 4
  %99 = sext i32 %98 to i64
  %100 = getelementptr inbounds [100 x [100 x i8]], [100 x [100 x i8]]* %5, i64 0, i64 %99
  %101 = load i32, i32* %8, align 4
  %102 = sext i32 %101 to i64
  %103 = getelementptr inbounds [100 x i8], [100 x i8]* %100, i64 0, i64 %102
  store i8 0, i8* %103, align 1
  %104 = load i32, i32* %11, align 4
  %105 = add nsw i32 %104, 1
  store i32 %105, i32* %11, align 4
  %106 = load i32, i32* %8, align 4
  %107 = add nsw i32 %106, 1
  store i32 %107, i32* %8, align 4
  br label %109

108:                                              ; preds = %82
  br label %68

109:                                              ; preds = %97
  %110 = load i32, i32* %8, align 4
  %111 = sub nsw i32 %110, 1
  %112 = icmp ne i32 %111, 0
  br i1 %112, label %113, label %117

113:                                              ; preds = %109
  %114 = load i32, i32* %8, align 4
  %115 = sub nsw i32 %114, 1
  %116 = call i32 (i8*, ...) @printf(i8* getelementptr inbounds ([4 x i8], [4 x i8]* @.str.1, i64 0, i64 0), i32 %115)
  br label %117

117:                                              ; preds = %113, %109
  %118 = load i32, i32* %11, align 4
  %119 = sub nsw i32 %118, 1
  %120 = sext i32 %119 to i64
  %121 = getelementptr inbounds [10000 x i8], [10000 x i8]* %2, i64 0, i64 %120
  %122 = load i8, i8* %121, align 1
  %123 = sext i8 %122 to i32
  %124 = icmp eq i32 %123, 0
  br i1 %124, label %125, label %126

125:                                              ; preds = %117
  br label %130

126:                                              ; preds = %117
  br label %127

127:                                              ; preds = %126
  %128 = load i32, i32* %6, align 4
  %129 = add nsw i32 %128, 1
  store i32 %129, i32* %6, align 4
  br label %67

130:                                              ; preds = %125
  ret i32 0
}

declare dso_local i32 @gets(...) #1

declare dso_local i32 @printf(i8*, ...) #1


!llvm.module.flags = !{!0}
!llvm.ident = !{!1}

!0 = !{i32 1, !"wchar_size", i32 4}
!1 = !{!"clang version 10.0.0-4ubuntu1 "}
