; ModuleID = 'source-C-CXX/27/553.c'
source_filename = "source-C-CXX/27/553.c"
target datalayout = "e-m:e-p270:32:32-p271:32:32-p272:64:64-i64:64-f80:128-n8:16:32:64-S128"
target triple = "x86_64-pc-linux-gnu"

@.str = private unnamed_addr constant [3 x i8] c"%d\00", align 1
@.str.1 = private unnamed_addr constant [4 x i8] c",%d\00", align 1

; Function Attrs: nounwind sspstrong uwtable
define dso_local i32 @main() local_unnamed_addr #0 {
  %1 = alloca [10000 x i8], align 16
  %2 = getelementptr inbounds [10000 x i8], [10000 x i8]* %1, i64 0, i64 0
  call void @llvm.lifetime.start.p0i8(i64 10000, i8* nonnull %2) #4
  %3 = call i32 (i8*, ...) bitcast (i32 (...)* @gets to i32 (i8*, ...)*)(i8* nonnull %2) #4
  br label %4

4:                                                ; preds = %9, %0
  %5 = phi i64 [ %10, %9 ], [ 0, %0 ]
  %6 = phi i32 [ %11, %9 ], [ 0, %0 ]
  %7 = getelementptr inbounds [10000 x i8], [10000 x i8]* %1, i64 0, i64 %5
  %8 = load i8, i8* %7, align 1, !tbaa !5
  switch i8 %8, label %9 [
    i8 32, label %12
    i8 0, label %12
  ]

9:                                                ; preds = %4
  %10 = add nuw i64 %5, 1
  %11 = add nuw nsw i32 %6, 1
  br label %4

12:                                               ; preds = %4, %4
  %13 = icmp eq i32 %6, 0
  br i1 %13, label %16, label %14

14:                                               ; preds = %12
  %15 = call i32 (i8*, ...) @printf(i8* nonnull dereferenceable(1) getelementptr inbounds ([3 x i8], [3 x i8]* @.str, i64 0, i64 0), i32 %6)
  br label %16

16:                                               ; preds = %14, %12
  br label %17

17:                                               ; preds = %16, %35
  %18 = phi i64 [ %24, %35 ], [ %5, %16 ]
  %19 = shl i64 %18, 32
  %20 = ashr exact i64 %19, 32
  br label %21

21:                                               ; preds = %27, %17
  %22 = phi i64 [ %24, %27 ], [ %20, %17 ]
  %23 = phi i32 [ %28, %27 ], [ 0, %17 ]
  %24 = add nsw i64 %22, 1
  %25 = getelementptr inbounds [10000 x i8], [10000 x i8]* %1, i64 0, i64 %24
  %26 = load i8, i8* %25, align 1, !tbaa !5
  switch i8 %26, label %27 [
    i8 32, label %29
    i8 0, label %29
  ]

27:                                               ; preds = %21
  %28 = add nuw nsw i32 %23, 1
  br label %21

29:                                               ; preds = %21, %21
  %30 = icmp eq i32 %23, 0
  br i1 %30, label %35, label %31

31:                                               ; preds = %29
  %32 = getelementptr inbounds [10000 x i8], [10000 x i8]* %1, i64 0, i64 %24
  %33 = call i32 (i8*, ...) @printf(i8* nonnull dereferenceable(1) getelementptr inbounds ([4 x i8], [4 x i8]* @.str.1, i64 0, i64 0), i32 %23)
  %34 = load i8, i8* %32, align 1, !tbaa !5
  br label %35

35:                                               ; preds = %31, %29
  %36 = phi i8 [ %34, %31 ], [ %26, %29 ]
  %37 = icmp eq i8 %36, 0
  br i1 %37, label %38, label %17

38:                                               ; preds = %35
  call void @llvm.lifetime.end.p0i8(i64 10000, i8* nonnull %2) #4
  ret i32 0
}

; Function Attrs: argmemonly mustprogress nofree nosync nounwind willreturn
declare void @llvm.lifetime.start.p0i8(i64 immarg, i8* nocapture) #1

declare i32 @gets(...) local_unnamed_addr #2

; Function Attrs: nofree nounwind
declare noundef i32 @printf(i8* nocapture noundef readonly, ...) local_unnamed_addr #3

; Function Attrs: argmemonly mustprogress nofree nosync nounwind willreturn
declare void @llvm.lifetime.end.p0i8(i64 immarg, i8* nocapture) #1


!llvm.module.flags = !{!0, !1, !2, !3}
!llvm.ident = !{!4}

!0 = !{i32 1, !"wchar_size", i32 4}
!1 = !{i32 7, !"PIC Level", i32 2}
!2 = !{i32 7, !"PIE Level", i32 2}
!3 = !{i32 7, !"uwtable", i32 1}
!4 = !{!"clang version 13.0.0"}
!5 = !{!6, !6, i64 0}
!6 = !{!"omnipotent char", !7, i64 0}
!7 = !{!"Simple C/C++ TBAA"}
